target datalayout = "e-m:e-p270:32:32-p271:32:32-p272:64:64-i64:64-i128:128-f80:128-n8:16:32:64-S128"
target triple = "x86_64-pc-linux-gnu"

%struct.strscanner = type { i64, i64, i64, i64, %struct.re_registers, i64, i8 }
%struct.re_registers = type { i32, i32, ptr, ptr }

; Function Attrs: nounwind sspstrong uwtable
define internal void @strscan_mark(ptr noundef %0) #0 {
  %2 = alloca ptr, align 8
  %3 = alloca ptr, align 8
  store ptr %0, ptr %2, align 8, !tbaa !52
  call void @llvm.lifetime.start.p0(i64 8, ptr %3) #23
  %4 = load ptr, ptr %2, align 8, !tbaa !52
  store ptr %4, ptr %3, align 8, !tbaa !15
  %5 = load ptr, ptr %3, align 8, !tbaa !15
  %6 = getelementptr inbounds nuw %struct.strscanner, ptr %5, i32 0, i32 1
  %7 = load i64, ptr %6, align 8, !tbaa !22
  call void @rb_gc_mark(i64 noundef %7)
  %8 = load ptr, ptr %3, align 8, !tbaa !15
  %9 = getelementptr inbounds nuw %struct.strscanner, ptr %8, i32 0, i32 5
  %10 = load i64, ptr %9, align 8, !tbaa !23
  call void @rb_gc_mark(i64 noundef %10)
  call void @llvm.lifetime.end.p0(i64 8, ptr %3) #23
  ret void
}