; Function Attrs: nounwind sspstrong uwtable
define internal void @strscan_mark(ptr noundef readonly captures(none) %0) #0 {
  %2 = getelementptr inbounds nuw i8, ptr %0, i64 8
  %3 = load i64, ptr %2, align 8, !tbaa !23
  tail call void @rb_gc_mark(i64 noundef %3) #12
  %4 = getelementptr inbounds nuw i8, ptr %0, i64 56
  %5 = load i64, ptr %4, align 8, !tbaa !24
  tail call void @rb_gc_mark(i64 noundef %5) #12
  ret void
}